; Function Attrs: mustprogress uwtable
define internal void @_ZL19tinshift_reverse_4dR8PJ_COORDP8PJconsts(ptr nocapture noundef nonnull align 8 dereferenceable(32) %0, ptr nocapture noundef readonly %1) #2 {
  %3 = alloca %union.PJ_COORD, align 8
  %4 = getelementptr inbounds i8, ptr %1, i64 88
  %5 = load ptr, ptr %4, align 8
  %6 = load ptr, ptr %5, align 8
  %7 = load double, ptr %0, align 8
  %8 = getelementptr inbounds i8, ptr %0, i64 8
  %9 = load double, ptr %8, align 8
  %10 = getelementptr inbounds i8, ptr %0, i64 16
  %11 = load double, ptr %10, align 8
  %12 = tail call noundef zeroext i1 @_ZN8TINShift9Evaluator7inverseEdddRdS1_S1_(ptr noundef nonnull align 8 dereferenceable(48) %6, double noundef %7, double noundef %9, double noundef %11, ptr noundef nonnull align 8 dereferenceable(8) %0, ptr noundef nonnull align 8 dereferenceable(8) %8, ptr noundef nonnull align 8 dereferenceable(8) %10)
  br i1 %12, label %14, label %13

13:                                               ; preds = %2
  call void @_Z16proj_coord_errorv(ptr dead_on_unwind nonnull writable sret(%union.PJ_COORD) align 8 %3)
  call void @llvm.memcpy.p0.p0.i64(ptr noundef nonnull align 8 dereferenceable(32) %0, ptr noundef nonnull align 8 dereferenceable(32) %3, i64 32, i1 false)
  br label %14

14:                                               ; preds = %13, %2
  ret void
}